target datalayout = "e-m:e-p270:32:32-p271:32:32-p272:64:64-i64:64-i128:128-f80:128-n8:16:32:64-S128"
target triple = "x86_64-pc-linux-gnu"

%struct.UtvideoContext = type { ptr, %struct.UTVideoDSPContext, %struct.BswapDSPContext, %struct.LLVidDSPContext, i32, i32, i32, i32, i32, i32, i32, i32, i32, i32, i32, ptr, i32, ptr, [4 x [256 x ptr]], [4 x [256 x i64]], [4 x [256 x ptr]], [4 x [256 x i64]] }
%struct.UTVideoDSPContext = type { ptr, ptr }
%struct.BswapDSPContext = type { ptr, ptr }
%struct.LLVidDSPContext = type { ptr, ptr, ptr, ptr, ptr }

; Function Attrs: inlinehint nounwind willreturn memory(none) uwtable
define internal i32 @mid_pred(i32 noundef %0, i32 noundef %1, i32 noundef %2) #10 {
  %4 = alloca i32, align 4
  %5 = alloca i32, align 4
  %6 = alloca i32, align 4
  store i32 %0, ptr %4, align 4, !tbaa !44
  store i32 %1, ptr %5, align 4, !tbaa !44
  store i32 %2, ptr %6, align 4, !tbaa !44
  %7 = load i32, ptr %4, align 4, !tbaa !44
  %8 = load i32, ptr %5, align 4, !tbaa !44
  %9 = icmp sgt i32 %7, %8
  br i1 %9, label %10, label %24

10:                                               ; preds = %3
  %11 = load i32, ptr %6, align 4, !tbaa !44
  %12 = load i32, ptr %5, align 4, !tbaa !44
  %13 = icmp sgt i32 %11, %12
  br i1 %13, label %14, label %23

14:                                               ; preds = %10
  %15 = load i32, ptr %6, align 4, !tbaa !44
  %16 = load i32, ptr %4, align 4, !tbaa !44
  %17 = icmp sgt i32 %15, %16
  br i1 %17, label %18, label %20

18:                                               ; preds = %14
  %19 = load i32, ptr %4, align 4, !tbaa !44
  store i32 %19, ptr %5, align 4, !tbaa !44
  br label %22

20:                                               ; preds = %14
  %21 = load i32, ptr %6, align 4, !tbaa !44
  store i32 %21, ptr %5, align 4, !tbaa !44
  br label %22

22:                                               ; preds = %20, %18
  br label %23

23:                                               ; preds = %22, %10
  br label %38

24:                                               ; preds = %3
  %25 = load i32, ptr %5, align 4, !tbaa !44
  %26 = load i32, ptr %6, align 4, !tbaa !44
  %27 = icmp sgt i32 %25, %26
  br i1 %27, label %28, label %37

28:                                               ; preds = %24
  %29 = load i32, ptr %6, align 4, !tbaa !44
  %30 = load i32, ptr %4, align 4, !tbaa !44
  %31 = icmp sgt i32 %29, %30
  br i1 %31, label %32, label %34

32:                                               ; preds = %28
  %33 = load i32, ptr %6, align 4, !tbaa !44
  store i32 %33, ptr %5, align 4, !tbaa !44
  br label %36

34:                                               ; preds = %28
  %35 = load i32, ptr %4, align 4, !tbaa !44
  store i32 %35, ptr %5, align 4, !tbaa !44
  br label %36

36:                                               ; preds = %34, %32
  br label %37

37:                                               ; preds = %36, %24
  br label %38

38:                                               ; preds = %37, %23
  %39 = load i32, ptr %5, align 4, !tbaa !44
  ret i32 %39
}

; Function Attrs: nounwind uwtable
define internal void @restore_median_planar(ptr noundef %0, ptr noundef %1, i64 noundef %2, i32 noundef %3, i32 noundef %4, i32 noundef %5, i32 noundef %6) #1 {
  %8 = alloca ptr, align 8
  %9 = alloca ptr, align 8
  %10 = alloca i64, align 8
  %11 = alloca i32, align 4
  %12 = alloca i32, align 4
  %13 = alloca i32, align 4
  %14 = alloca i32, align 4
  %15 = alloca i32, align 4
  %16 = alloca i32, align 4
  %17 = alloca i32, align 4
  %18 = alloca i32, align 4
  %19 = alloca i32, align 4
  %20 = alloca i32, align 4
  %21 = alloca ptr, align 8
  %22 = alloca i32, align 4
  %23 = alloca i32, align 4
  %24 = alloca i32, align 4
  store ptr %0, ptr %8, align 8, !tbaa !29
  store ptr %1, ptr %9, align 8, !tbaa !62
  store i64 %2, ptr %10, align 8, !tbaa !66
  store i32 %3, ptr %11, align 4, !tbaa !44
  store i32 %4, ptr %12, align 4, !tbaa !44
  store i32 %5, ptr %13, align 4, !tbaa !44
  store i32 %6, ptr %14, align 4, !tbaa !44
  call void @llvm.lifetime.start.p0(i64 4, ptr %15) #11
  call void @llvm.lifetime.start.p0(i64 4, ptr %16) #11
  call void @llvm.lifetime.start.p0(i64 4, ptr %17) #11
  call void @llvm.lifetime.start.p0(i64 4, ptr %18) #11
  call void @llvm.lifetime.start.p0(i64 4, ptr %19) #11
  call void @llvm.lifetime.start.p0(i64 4, ptr %20) #11
  call void @llvm.lifetime.start.p0(i64 8, ptr %21) #11
  call void @llvm.lifetime.start.p0(i64 4, ptr %22) #11
  call void @llvm.lifetime.start.p0(i64 4, ptr %23) #11
  call void @llvm.lifetime.start.p0(i64 4, ptr %24) #11
  %25 = load i32, ptr %14, align 4, !tbaa !44
  %26 = xor i32 %25, -1
  store i32 %26, ptr %24, align 4, !tbaa !44
  store i32 0, ptr %17, align 4, !tbaa !44
  br label %27

27:                                               ; preds = %193, %7
  %28 = load i32, ptr %17, align 4, !tbaa !44
  %29 = load i32, ptr %13, align 4, !tbaa !44
  %30 = icmp slt i32 %28, %29
  br i1 %30, label %31, label %196

31:                                               ; preds = %27
  %32 = load i32, ptr %17, align 4, !tbaa !44
  %33 = load i32, ptr %12, align 4, !tbaa !44
  %34 = mul nsw i32 %32, %33
  %35 = load i32, ptr %13, align 4, !tbaa !44
  %36 = sdiv i32 %34, %35
  %37 = load i32, ptr %24, align 4, !tbaa !44
  %38 = and i32 %36, %37
  store i32 %38, ptr %22, align 4, !tbaa !44
  %39 = load i32, ptr %17, align 4, !tbaa !44
  %40 = add nsw i32 %39, 1
  %41 = load i32, ptr %12, align 4, !tbaa !44
  %42 = mul nsw i32 %40, %41
  %43 = load i32, ptr %13, align 4, !tbaa !44
  %44 = sdiv i32 %42, %43
  %45 = load i32, ptr %24, align 4, !tbaa !44
  %46 = and i32 %44, %45
  %47 = load i32, ptr %22, align 4, !tbaa !44
  %48 = sub nsw i32 %46, %47
  store i32 %48, ptr %23, align 4, !tbaa !44
  %49 = load i32, ptr %23, align 4, !tbaa !44
  %50 = icmp ne i32 %49, 0
  br i1 %50, label %52, label %51

51:                                               ; preds = %31
  br label %193

52:                                               ; preds = %31
  %53 = load ptr, ptr %9, align 8, !tbaa !62
  %54 = load i32, ptr %22, align 4, !tbaa !44
  %55 = sext i32 %54 to i64
  %56 = load i64, ptr %10, align 8, !tbaa !66
  %57 = mul nsw i64 %55, %56
  %58 = getelementptr inbounds i8, ptr %53, i64 %57
  store ptr %58, ptr %21, align 8, !tbaa !62
  %59 = load ptr, ptr %21, align 8, !tbaa !62
  %60 = getelementptr inbounds i8, ptr %59, i64 0
  %61 = load i8, ptr %60, align 1, !tbaa !48
  %62 = zext i8 %61 to i32
  %63 = add nsw i32 %62, 128
  %64 = trunc i32 %63 to i8
  store i8 %64, ptr %60, align 1, !tbaa !48
  %65 = load ptr, ptr %8, align 8, !tbaa !29
  %66 = getelementptr inbounds nuw %struct.UtvideoContext, ptr %65, i32 0, i32 3
  %67 = getelementptr inbounds nuw %struct.LLVidDSPContext, ptr %66, i32 0, i32 2
  %68 = load ptr, ptr %67, align 8, !tbaa !113
  %69 = load ptr, ptr %21, align 8, !tbaa !62
  %70 = load ptr, ptr %21, align 8, !tbaa !62
  %71 = load i32, ptr %11, align 4, !tbaa !44
  %72 = sext i32 %71 to i64
  %73 = call i32 %68(ptr noundef %69, ptr noundef %70, i64 noundef %72, i32 noundef 0)
  %74 = load i64, ptr %10, align 8, !tbaa !66
  %75 = load ptr, ptr %21, align 8, !tbaa !62
  %76 = getelementptr inbounds i8, ptr %75, i64 %74
  store ptr %76, ptr %21, align 8, !tbaa !62
  %77 = load i32, ptr %23, align 4, !tbaa !44
  %78 = icmp sle i32 %77, 1
  br i1 %78, label %79, label %80

79:                                               ; preds = %52
  br label %193

80:                                               ; preds = %52
  %81 = load ptr, ptr %21, align 8, !tbaa !62
  %82 = load i64, ptr %10, align 8, !tbaa !66
  %83 = sub nsw i64 0, %82
  %84 = getelementptr inbounds i8, ptr %81, i64 %83
  %85 = load i8, ptr %84, align 1, !tbaa !48
  %86 = zext i8 %85 to i32
  store i32 %86, ptr %20, align 4, !tbaa !44
  %87 = load i32, ptr %20, align 4, !tbaa !44
  %88 = load ptr, ptr %21, align 8, !tbaa !62
  %89 = getelementptr inbounds i8, ptr %88, i64 0
  %90 = load i8, ptr %89, align 1, !tbaa !48
  %91 = zext i8 %90 to i32
  %92 = add nsw i32 %91, %87
  %93 = trunc i32 %92 to i8
  store i8 %93, ptr %89, align 1, !tbaa !48
  %94 = load ptr, ptr %21, align 8, !tbaa !62
  %95 = getelementptr inbounds i8, ptr %94, i64 0
  %96 = load i8, ptr %95, align 1, !tbaa !48
  %97 = zext i8 %96 to i32
  store i32 %97, ptr %18, align 4, !tbaa !44
  store i32 1, ptr %15, align 4, !tbaa !44
  br label %98

98:                                               ; preds = %142, %80
  %99 = load i32, ptr %15, align 4, !tbaa !44
  %100 = load i32, ptr %11, align 4, !tbaa !44
  %101 = icmp sgt i32 %100, 16
  br i1 %101, label %102, label %103

102:                                              ; preds = %98
  br label %105

103:                                              ; preds = %98
  %104 = load i32, ptr %11, align 4, !tbaa !44
  br label %105

105:                                              ; preds = %103, %102
  %106 = phi i32 [ 16, %102 ], [ %104, %103 ]
  %107 = icmp slt i32 %99, %106
  br i1 %107, label %108, label %145

108:                                              ; preds = %105
  %109 = load ptr, ptr %21, align 8, !tbaa !62
  %110 = load i32, ptr %15, align 4, !tbaa !44
  %111 = sext i32 %110 to i64
  %112 = load i64, ptr %10, align 8, !tbaa !66
  %113 = sub nsw i64 %111, %112
  %114 = getelementptr inbounds i8, ptr %109, i64 %113
  %115 = load i8, ptr %114, align 1, !tbaa !48
  %116 = zext i8 %115 to i32
  store i32 %116, ptr %19, align 4, !tbaa !44
  %117 = load i32, ptr %18, align 4, !tbaa !44
  %118 = load i32, ptr %19, align 4, !tbaa !44
  %119 = load i32, ptr %18, align 4, !tbaa !44
  %120 = load i32, ptr %19, align 4, !tbaa !44
  %121 = add nsw i32 %119, %120
  %122 = load i32, ptr %20, align 4, !tbaa !44
  %123 = sub nsw i32 %121, %122
  %124 = trunc i32 %123 to i8
  %125 = zext i8 %124 to i32
  %126 = call i32 @mid_pred(i32 noundef %117, i32 noundef %118, i32 noundef %125) #12
  %127 = load ptr, ptr %21, align 8, !tbaa !62
  %128 = load i32, ptr %15, align 4, !tbaa !44
  %129 = sext i32 %128 to i64
  %130 = getelementptr inbounds i8, ptr %127, i64 %129
  %131 = load i8, ptr %130, align 1, !tbaa !48
  %132 = zext i8 %131 to i32
  %133 = add nsw i32 %132, %126
  %134 = trunc i32 %133 to i8
  store i8 %134, ptr %130, align 1, !tbaa !48
  %135 = load i32, ptr %19, align 4, !tbaa !44
  store i32 %135, ptr %20, align 4, !tbaa !44
  %136 = load ptr, ptr %21, align 8, !tbaa !62
  %137 = load i32, ptr %15, align 4, !tbaa !44
  %138 = sext i32 %137 to i64
  %139 = getelementptr inbounds i8, ptr %136, i64 %138
  %140 = load i8, ptr %139, align 1, !tbaa !48
  %141 = zext i8 %140 to i32
  store i32 %141, ptr %18, align 4, !tbaa !44
  br label %142

142:                                              ; preds = %108
  %143 = load i32, ptr %15, align 4, !tbaa !44
  %144 = add nsw i32 %143, 1
  store i32 %144, ptr %15, align 4, !tbaa !44
  br label %98, !llvm.loop !116

145:                                              ; preds = %105
  %146 = load i32, ptr %11, align 4, !tbaa !44
  %147 = icmp sgt i32 %146, 16
  br i1 %147, label %148, label %165

148:                                              ; preds = %145
  %149 = load ptr, ptr %8, align 8, !tbaa !29
  %150 = getelementptr inbounds nuw %struct.UtvideoContext, ptr %149, i32 0, i32 3
  %151 = getelementptr inbounds nuw %struct.LLVidDSPContext, ptr %150, i32 0, i32 1
  %152 = load ptr, ptr %151, align 8, !tbaa !117
  %153 = load ptr, ptr %21, align 8, !tbaa !62
  %154 = getelementptr inbounds i8, ptr %153, i64 16
  %155 = load ptr, ptr %21, align 8, !tbaa !62
  %156 = load i64, ptr %10, align 8, !tbaa !66
  %157 = sub i64 0, %156
  %158 = getelementptr inbounds i8, ptr %155, i64 %157
  %159 = getelementptr inbounds i8, ptr %158, i64 16
  %160 = load ptr, ptr %21, align 8, !tbaa !62
  %161 = getelementptr inbounds i8, ptr %160, i64 16
  %162 = load i32, ptr %11, align 4, !tbaa !44
  %163 = sub nsw i32 %162, 16
  %164 = sext i32 %163 to i64
  call void %152(ptr noundef %154, ptr noundef %159, ptr noundef %161, i64 noundef %164, ptr noundef %18, ptr noundef %19)
  br label %165

165:                                              ; preds = %148, %145
  %166 = load i64, ptr %10, align 8, !tbaa !66
  %167 = load ptr, ptr %21, align 8, !tbaa !62
  %168 = getelementptr inbounds i8, ptr %167, i64 %166
  store ptr %168, ptr %21, align 8, !tbaa !62
  store i32 2, ptr %16, align 4, !tbaa !44
  br label %169

169:                                              ; preds = %189, %165
  %170 = load i32, ptr %16, align 4, !tbaa !44
  %171 = load i32, ptr %23, align 4, !tbaa !44
  %172 = icmp slt i32 %170, %171
  br i1 %172, label %173, label %192

173:                                              ; preds = %169
  %174 = load ptr, ptr %8, align 8, !tbaa !29
  %175 = getelementptr inbounds nuw %struct.UtvideoContext, ptr %174, i32 0, i32 3
  %176 = getelementptr inbounds nuw %struct.LLVidDSPContext, ptr %175, i32 0, i32 1
  %177 = load ptr, ptr %176, align 8, !tbaa !117
  %178 = load ptr, ptr %21, align 8, !tbaa !62
  %179 = load ptr, ptr %21, align 8, !tbaa !62
  %180 = load i64, ptr %10, align 8, !tbaa !66
  %181 = sub i64 0, %180
  %182 = getelementptr inbounds i8, ptr %179, i64 %181
  %183 = load ptr, ptr %21, align 8, !tbaa !62
  %184 = load i32, ptr %11, align 4, !tbaa !44
  %185 = sext i32 %184 to i64
  call void %177(ptr noundef %178, ptr noundef %182, ptr noundef %183, i64 noundef %185, ptr noundef %18, ptr noundef %19)
  %186 = load i64, ptr %10, align 8, !tbaa !66
  %187 = load ptr, ptr %21, align 8, !tbaa !62
  %188 = getelementptr inbounds i8, ptr %187, i64 %186
  store ptr %188, ptr %21, align 8, !tbaa !62
  br label %189

189:                                              ; preds = %173
  %190 = load i32, ptr %16, align 4, !tbaa !44
  %191 = add nsw i32 %190, 1
  store i32 %191, ptr %16, align 4, !tbaa !44
  br label %169, !llvm.loop !118

192:                                              ; preds = %169
  br label %193

193:                                              ; preds = %192, %79, %51
  %194 = load i32, ptr %17, align 4, !tbaa !44
  %195 = add nsw i32 %194, 1
  store i32 %195, ptr %17, align 4, !tbaa !44
  br label %27, !llvm.loop !119

196:                                              ; preds = %27
  call void @llvm.lifetime.end.p0(i64 4, ptr %24) #11
  call void @llvm.lifetime.end.p0(i64 4, ptr %23) #11
  call void @llvm.lifetime.end.p0(i64 4, ptr %22) #11
  call void @llvm.lifetime.end.p0(i64 8, ptr %21) #11
  call void @llvm.lifetime.end.p0(i64 4, ptr %20) #11
  call void @llvm.lifetime.end.p0(i64 4, ptr %19) #11
  call void @llvm.lifetime.end.p0(i64 4, ptr %18) #11
  call void @llvm.lifetime.end.p0(i64 4, ptr %17) #11
  call void @llvm.lifetime.end.p0(i64 4, ptr %16) #11
  call void @llvm.lifetime.end.p0(i64 4, ptr %15) #11
  ret void
}