; Function Attrs: nounwind uwtable
define internal fastcc void @restore_median_planar(ptr noundef readonly captures(none) %0, ptr noundef %1, i64 noundef range(i64 -2147483648, 2147483648) %2, i32 noundef %3, i32 noundef %4, i32 noundef %5, i32 noundef range(i32 0, 2) %6) unnamed_addr #1 {
  %8 = alloca i32, align 4
  %9 = alloca i32, align 4
  call void @llvm.lifetime.start.p0(i64 4, ptr nonnull %8) #7
  call void @llvm.lifetime.start.p0(i64 4, ptr nonnull %9) #7
  %10 = xor i32 %6, -1
  %11 = icmp sgt i32 %5, 0
  br i1 %11, label %.lr.ph77, label %._crit_edge78

.lr.ph77:                                         ; preds = %7
  %12 = getelementptr inbounds nuw i8, ptr %0, i64 56
  %13 = sext i32 %3 to i64
  %14 = tail call i32 @llvm.smin.i32(i32 %3, i32 16)
  %15 = icmp sgt i32 %3, 1
  %16 = icmp sgt i32 %3, 16
  %17 = getelementptr inbounds nuw i8, ptr %0, i64 48
  %18 = add nsw i32 %3, -16
  %19 = zext nneg i32 %18 to i64
  %wide.trip.count = zext nneg i32 %14 to i64
  br label %20

20:                                               ; preds = %.lr.ph77, %.loopexit
  %.06275 = phi i32 [ 0, %.lr.ph77 ], [ %24, %.loopexit ]
  %21 = mul nsw i32 %.06275, %4
  %22 = sdiv i32 %21, %5
  %23 = and i32 %22, %10
  %24 = add nuw nsw i32 %.06275, 1
  %25 = mul nsw i32 %24, %4
  %26 = sdiv i32 %25, %5
  %27 = and i32 %26, %10
  %28 = sub i32 %27, %23
  %.not = icmp eq i32 %27, %23
  br i1 %.not, label %.loopexit, label %29

29:                                               ; preds = %20
  %30 = sext i32 %23 to i64
  %31 = mul nsw i64 %2, %30
  %32 = getelementptr inbounds i8, ptr %1, i64 %31
  %33 = load i8, ptr %32, align 1, !tbaa !44
  %34 = xor i8 %33, -128
  store i8 %34, ptr %32, align 1, !tbaa !44
  %35 = load ptr, ptr %12, align 8, !tbaa !101
  %36 = call i32 %35(ptr noundef nonnull %32, ptr noundef nonnull %32, i64 noundef %13, i32 noundef 0) #7
  %37 = getelementptr inbounds i8, ptr %32, i64 %2
  %38 = icmp slt i32 %28, 2
  br i1 %38, label %.loopexit, label %39

39:                                               ; preds = %29
  %40 = load i8, ptr %32, align 1, !tbaa !44
  %41 = load i8, ptr %37, align 1, !tbaa !44
  %42 = add i8 %41, %40
  store i8 %42, ptr %37, align 1, !tbaa !44
  %43 = zext i8 %42 to i32
  store i32 %43, ptr %8, align 4, !tbaa !39
  br i1 %15, label %.lr.ph.preheader, label %.thread

.lr.ph.preheader:                                 ; preds = %39
  %44 = zext i8 %40 to i32
  br label %.lr.ph

.lr.ph:                                           ; preds = %.lr.ph.preheader, %mid_pred.exit
  %indvars.iv = phi i64 [ 1, %.lr.ph.preheader ], [ %indvars.iv.next, %mid_pred.exit ]
  %.06468 = phi i32 [ %44, %.lr.ph.preheader ], [ %48, %mid_pred.exit ]
  %45 = phi i32 [ %43, %.lr.ph.preheader ], [ %64, %mid_pred.exit ]
  %46 = getelementptr inbounds nuw i8, ptr %32, i64 %indvars.iv
  %47 = load i8, ptr %46, align 1, !tbaa !44
  %48 = zext i8 %47 to i32
  %49 = sub nsw i32 %48, %.06468
  %50 = add nsw i32 %49, %45
  %51 = and i32 %50, 255
  %52 = icmp samesign ugt i32 %45, %48
  br i1 %52, label %53, label %56

53:                                               ; preds = %.lr.ph
  %54 = icmp samesign ugt i32 %51, %48
  br i1 %54, label %55, label %mid_pred.exit

55:                                               ; preds = %53
  %..i = call i32 @llvm.umin.i32(i32 range(i32 0, 256) %51, i32 %45)
  br label %mid_pred.exit

56:                                               ; preds = %.lr.ph
  %57 = icmp samesign ult i32 %51, %48
  br i1 %57, label %58, label %mid_pred.exit

58:                                               ; preds = %56
  %59 = call i32 @llvm.umax.i32(i32 %51, i32 %45)
  br label %mid_pred.exit

mid_pred.exit:                                    ; preds = %53, %55, %56, %58
  %.0.i = phi i32 [ %48, %53 ], [ %48, %56 ], [ %..i, %55 ], [ %59, %58 ]
  %60 = getelementptr inbounds nuw i8, ptr %37, i64 %indvars.iv
  %61 = load i8, ptr %60, align 1, !tbaa !44
  %62 = trunc nuw i32 %.0.i to i8
  %63 = add i8 %61, %62
  store i8 %63, ptr %60, align 1, !tbaa !44
  %64 = zext i8 %63 to i32
  %indvars.iv.next = add nuw nsw i64 %indvars.iv, 1
  %exitcond.not = icmp eq i64 %indvars.iv.next, %wide.trip.count
  br i1 %exitcond.not, label %65, label %.lr.ph, !llvm.loop !103

65:                                               ; preds = %mid_pred.exit
  store i32 %48, ptr %9, align 4, !tbaa !39
  store i32 %64, ptr %8, align 4, !tbaa !39
  br i1 %16, label %66, label %.thread

66:                                               ; preds = %65
  %67 = load ptr, ptr %17, align 8, !tbaa !104
  %68 = getelementptr inbounds nuw i8, ptr %37, i64 16
  %69 = getelementptr inbounds nuw i8, ptr %32, i64 16
  call void %67(ptr noundef nonnull %68, ptr noundef nonnull %69, ptr noundef nonnull %68, i64 noundef %19, ptr noundef nonnull %8, ptr noundef nonnull %9) #7
  br label %.thread

.thread:                                          ; preds = %39, %66, %65
  %.not79 = icmp eq i32 %28, 2
  br i1 %.not79, label %.loopexit, label %.lr.ph74.preheader

.lr.ph74.preheader:                               ; preds = %.thread
  %smax = call i32 @llvm.smax.i32(i32 %28, i32 3)
  br label %.lr.ph74

.lr.ph74:                                         ; preds = %.lr.ph74.preheader, %.lr.ph74
  %.06172 = phi i32 [ %71, %.lr.ph74 ], [ 2, %.lr.ph74.preheader ]
  %.pn71 = phi ptr [ %.063, %.lr.ph74 ], [ %37, %.lr.ph74.preheader ]
  %.063 = getelementptr inbounds i8, ptr %.pn71, i64 %2
  %70 = load ptr, ptr %17, align 8, !tbaa !104
  call void %70(ptr noundef %.063, ptr noundef %.pn71, ptr noundef %.063, i64 noundef %13, ptr noundef nonnull %8, ptr noundef nonnull %9) #7
  %71 = add nuw nsw i32 %.06172, 1
  %exitcond82.not = icmp eq i32 %71, %smax
  br i1 %exitcond82.not, label %.loopexit, label %.lr.ph74, !llvm.loop !105

.loopexit:                                        ; preds = %.lr.ph74, %.thread, %29, %20
  %exitcond83.not = icmp eq i32 %24, %5
  br i1 %exitcond83.not, label %._crit_edge78, label %20, !llvm.loop !106

._crit_edge78:                                    ; preds = %.loopexit, %7
  call void @llvm.lifetime.end.p0(i64 4, ptr nonnull %9) #7
  call void @llvm.lifetime.end.p0(i64 4, ptr nonnull %8) #7
  ret void
}